target datalayout = "e-m:e-p270:32:32-p271:32:32-p272:64:64-i64:64-i128:128-f80:128-n8:16:32:64-S128"
target triple = "x86_64-pc-linux-gnu"

%"class.logging::CheckOpResult" = type { ptr }
%"class.logging::LogMessage" = type <{ i32, [4 x i8], %"class.std::__cxx11::basic_ostringstream", i64, ptr, i32, [4 x i8] }>
%"class.std::__cxx11::basic_ostringstream" = type { %"class.std::basic_ostream.base", %"class.std::__cxx11::basic_stringbuf", %"class.std::basic_ios" }
%"class.std::basic_ostream.base" = type { ptr }
%"class.std::__cxx11::basic_stringbuf" = type { %"class.std::basic_streambuf", i32, %"class.std::__cxx11::basic_string" }
%"class.std::basic_streambuf" = type { ptr, ptr, ptr, ptr, ptr, ptr, ptr, %"class.std::locale" }
%"class.std::locale" = type { ptr }
%"class.std::__cxx11::basic_string" = type { %"struct.std::__cxx11::basic_string<char>::_Alloc_hider", i64, %union.anon }
%"struct.std::__cxx11::basic_string<char>::_Alloc_hider" = type { ptr }
%union.anon = type { i64, [8 x i8] }
%"class.std::basic_ios" = type { %"class.std::ios_base", ptr, i8, i8, ptr, ptr, ptr, ptr }
%"class.std::ios_base" = type { ptr, i64, i64, i32, i32, i32, ptr, %"struct.std::ios_base::_Words", [8 x %"struct.std::ios_base::_Words"], i32, ptr, %"class.std::locale" }
%"struct.std::ios_base::_Words" = type { ptr, i64 }
%"class.net::StrikeRegister" = type { i32, i32, i32, [8 x i8], i32, i32, i32, i32, ptr, %"class.std::unique_ptr" }
%"class.std::unique_ptr" = type { %"struct.std::__uniq_ptr_data" }
%"struct.std::__uniq_ptr_data" = type { %"class.std::__uniq_ptr_impl" }
%"class.std::__uniq_ptr_impl" = type { %"class.std::tuple" }
%"class.std::tuple" = type { %"struct.std::_Tuple_impl" }
%"struct.std::_Tuple_impl" = type { %"struct.std::_Head_base.1" }
%"struct.std::_Head_base.1" = type { ptr }
%"class.net::StrikeRegister::InternalNode" = type { [2 x i32] }

@.str.1 = private unnamed_addr constant [137 x i8] c"generated/home/dtcxzyw/WorkSpace/Projects/compilers/llvm-opt-benchmark/bench/libquic/libquic/src/net/quic/core/crypto/strike_register.cc\00", align 1

; Function Attrs: mustprogress nounwind uwtable
define linkonce_odr noundef nonnull align 8 dereferenceable(8) ptr @_ZNSt10_Head_baseILm0EPhLb0EE7_M_headERKS1_(ptr noundef nonnull align 8 dereferenceable(8) %0) #3 comdat align 2 {
  %2 = alloca ptr, align 8
  store ptr %0, ptr %2, align 8, !tbaa !104
  %3 = load ptr, ptr %2, align 8, !tbaa !104
  %4 = getelementptr inbounds nuw %"struct.std::_Head_base.1", ptr %3, i32 0, i32 0
  ret ptr %4
}

; Function Attrs: mustprogress nounwind uwtable
define linkonce_odr noundef nonnull align 8 dereferenceable(8) ptr @_ZNSt11_Tuple_implILm0EJPhSt14default_deleteIA_hEEE7_M_headERKS4_(ptr noundef nonnull align 8 dereferenceable(8) %0) #3 comdat align 2 {
  %2 = alloca ptr, align 8
  store ptr %0, ptr %2, align 8, !tbaa !100
  %3 = load ptr, ptr %2, align 8, !tbaa !100
  %4 = call noundef nonnull align 8 dereferenceable(8) ptr @_ZNSt10_Head_baseILm0EPhLb0EE7_M_headERKS1_(ptr noundef nonnull align 8 dereferenceable(8) %3) #17
  ret ptr %4
}

; Function Attrs: mustprogress nounwind uwtable
define linkonce_odr noundef nonnull align 8 dereferenceable(8) ptr @_ZSt12__get_helperILm0EPhJSt14default_deleteIA_hEEERKT0_RKSt11_Tuple_implIXT_EJS4_DpT1_EE(ptr noundef nonnull align 8 dereferenceable(8) %0) #3 comdat {
  %2 = alloca ptr, align 8
  store ptr %0, ptr %2, align 8, !tbaa !100
  %3 = load ptr, ptr %2, align 8, !tbaa !100
  %4 = call noundef nonnull align 8 dereferenceable(8) ptr @_ZNSt11_Tuple_implILm0EJPhSt14default_deleteIA_hEEE7_M_headERKS4_(ptr noundef nonnull align 8 dereferenceable(8) %3) #17
  ret ptr %4
}

; Function Attrs: mustprogress nounwind uwtable
define linkonce_odr noundef nonnull align 8 dereferenceable(8) ptr @_ZSt3getILm0EJPhSt14default_deleteIA_hEEERKNSt13tuple_elementIXT_ESt5tupleIJDpT0_EEE4typeERKS8_(ptr noundef nonnull align 8 dereferenceable(8) %0) #3 comdat {
  %2 = alloca ptr, align 8
  store ptr %0, ptr %2, align 8, !tbaa !98
  %3 = load ptr, ptr %2, align 8, !tbaa !98
  %4 = call noundef nonnull align 8 dereferenceable(8) ptr @_ZSt12__get_helperILm0EPhJSt14default_deleteIA_hEEERKT0_RKSt11_Tuple_implIXT_EJS4_DpT1_EE(ptr noundef nonnull align 8 dereferenceable(8) %3) #17
  ret ptr %4
}

; Function Attrs: mustprogress nounwind uwtable
define linkonce_odr noundef ptr @_ZNKSt15__uniq_ptr_implIhSt14default_deleteIA_hEE6_M_ptrEv(ptr noundef nonnull align 8 dereferenceable(8) %0) #3 comdat align 2 {
  %2 = alloca ptr, align 8
  store ptr %0, ptr %2, align 8, !tbaa !96
  %3 = load ptr, ptr %2, align 8
  %4 = getelementptr inbounds nuw %"class.std::__uniq_ptr_impl", ptr %3, i32 0, i32 0
  %5 = call noundef nonnull align 8 dereferenceable(8) ptr @_ZSt3getILm0EJPhSt14default_deleteIA_hEEERKNSt13tuple_elementIXT_ESt5tupleIJDpT0_EEE4typeERKS8_(ptr noundef nonnull align 8 dereferenceable(8) %4) #17
  %6 = load ptr, ptr %5, align 8, !tbaa !12
  ret ptr %6
}

; Function Attrs: mustprogress nounwind uwtable
define linkonce_odr noundef ptr @_ZNKSt10unique_ptrIA_hSt14default_deleteIS0_EE3getEv(ptr noundef nonnull align 8 dereferenceable(8) %0) #3 comdat align 2 {
  %2 = alloca ptr, align 8
  store ptr %0, ptr %2, align 8, !tbaa !41
  %3 = load ptr, ptr %2, align 8
  %4 = getelementptr inbounds nuw %"class.std::unique_ptr", ptr %3, i32 0, i32 0
  %5 = call noundef ptr @_ZNKSt15__uniq_ptr_implIhSt14default_deleteIA_hEE6_M_ptrEv(ptr noundef nonnull align 8 dereferenceable(8) %4) #17
  ret ptr %5
}

; Function Attrs: mustprogress nounwind uwtable
define linkonce_odr void @_ZN3net14StrikeRegister12InternalNode10SetNextPtrEj(ptr noundef nonnull align 4 dereferenceable(8) %0, i32 noundef %1) #3 comdat align 2 {
  %3 = alloca ptr, align 8
  %4 = alloca i32, align 4
  store ptr %0, ptr %3, align 8, !tbaa !51
  store i32 %1, ptr %4, align 4, !tbaa !3
  %5 = load ptr, ptr %3, align 8
  %6 = load i32, ptr %4, align 4, !tbaa !3
  %7 = getelementptr inbounds nuw %"class.net::StrikeRegister::InternalNode", ptr %5, i32 0, i32 0
  %8 = getelementptr inbounds [2 x i32], ptr %7, i64 0, i64 0
  store i32 %6, ptr %8, align 4, !tbaa !3
  ret void
}

; Function Attrs: mustprogress uwtable
define noundef nonnull align 4 dereferenceable(4) ptr @_ZN3net14StrikeRegister22external_node_next_ptrEj(ptr noundef nonnull align 8 dereferenceable(56) %0, i32 noundef %1) #0 align 2 {
  %3 = alloca ptr, align 8
  %4 = alloca i32, align 4
  store ptr %0, ptr %3, align 8, !tbaa !24
  store i32 %1, ptr %4, align 4, !tbaa !3
  %5 = load ptr, ptr %3, align 8
  %6 = getelementptr inbounds nuw %"class.net::StrikeRegister", ptr %5, i32 0, i32 9
  %7 = load i32, ptr %4, align 4, !tbaa !3
  %8 = mul i32 %7, 24
  %9 = zext i32 %8 to i64
  %10 = call noundef nonnull align 1 dereferenceable(1) ptr @_ZNKSt10unique_ptrIA_hSt14default_deleteIS0_EEixEm(ptr noundef nonnull align 8 dereferenceable(8) %6, i64 noundef %9)
  ret ptr %10
}

; Function Attrs: mustprogress nounwind uwtable
define linkonce_odr noundef nonnull align 1 dereferenceable(1) ptr @_ZNKSt10unique_ptrIA_hSt14default_deleteIS0_EEixEm(ptr noundef nonnull align 8 dereferenceable(8) %0, i64 noundef %1) #3 comdat align 2 {
  %3 = alloca ptr, align 8
  %4 = alloca i64, align 8
  store ptr %0, ptr %3, align 8, !tbaa !41
  store i64 %1, ptr %4, align 8, !tbaa !7
  %5 = load ptr, ptr %3, align 8
  br label %6

6:                                                ; preds = %2
  br label %7

7:                                                ; preds = %6
  %8 = call noundef ptr @_ZNKSt10unique_ptrIA_hSt14default_deleteIS0_EE3getEv(ptr noundef nonnull align 8 dereferenceable(8) %5) #17
  %9 = load i64, ptr %4, align 8, !tbaa !7
  %10 = getelementptr inbounds nuw i8, ptr %8, i64 %9
  ret ptr %10
}

; Function Attrs: mustprogress uwtable
define void @_ZN3net14StrikeRegister16FreeInternalNodeEj(ptr noundef nonnull align 8 dereferenceable(56) %0, i32 noundef %1) #0 align 2 {
  %3 = alloca ptr, align 8
  %4 = alloca i32, align 4
  store ptr %0, ptr %3, align 8, !tbaa !24
  store i32 %1, ptr %4, align 4, !tbaa !3
  %5 = load ptr, ptr %3, align 8
  %6 = getelementptr inbounds nuw %"class.net::StrikeRegister", ptr %5, i32 0, i32 8
  %7 = load ptr, ptr %6, align 8, !tbaa !40
  %8 = load i32, ptr %4, align 4, !tbaa !3
  %9 = zext i32 %8 to i64
  %10 = getelementptr inbounds nuw %"class.net::StrikeRegister::InternalNode", ptr %7, i64 %9
  %11 = getelementptr inbounds nuw %"class.net::StrikeRegister", ptr %5, i32 0, i32 5
  %12 = load i32, ptr %11, align 8, !tbaa !43
  call void @_ZN3net14StrikeRegister12InternalNode10SetNextPtrEj(ptr noundef nonnull align 4 dereferenceable(8) %10, i32 noundef %12)
  %13 = load i32, ptr %4, align 4, !tbaa !3
  %14 = getelementptr inbounds nuw %"class.net::StrikeRegister", ptr %5, i32 0, i32 5
  store i32 %13, ptr %14, align 8, !tbaa !43
  ret void
}

; Function Attrs: mustprogress uwtable
define void @_ZN3net14StrikeRegister16FreeExternalNodeEj(ptr noundef nonnull align 8 dereferenceable(56) %0, i32 noundef %1) #0 align 2 {
  %3 = alloca ptr, align 8
  %4 = alloca i32, align 4
  store ptr %0, ptr %3, align 8, !tbaa !24
  store i32 %1, ptr %4, align 4, !tbaa !3
  %5 = load ptr, ptr %3, align 8
  %6 = getelementptr inbounds nuw %"class.net::StrikeRegister", ptr %5, i32 0, i32 6
  %7 = load i32, ptr %6, align 4, !tbaa !46
  %8 = load i32, ptr %4, align 4, !tbaa !3
  %9 = call noundef nonnull align 4 dereferenceable(4) ptr @_ZN3net14StrikeRegister22external_node_next_ptrEj(ptr noundef nonnull align 8 dereferenceable(56) %5, i32 noundef %8)
  store i32 %7, ptr %9, align 4, !tbaa !3
  %10 = load i32, ptr %4, align 4, !tbaa !3
  %11 = getelementptr inbounds nuw %"class.net::StrikeRegister", ptr %5, i32 0, i32 6
  store i32 %10, ptr %11, align 4, !tbaa !46
  ret void
}

; Function Attrs: mustprogress nounwind uwtable
define linkonce_odr noundef nonnull align 8 dereferenceable(8) ptr @_ZN7logging10LogMessage6streamEv(ptr noundef nonnull align 8 dereferenceable(404) %0) #3 comdat align 2 {
  %2 = alloca ptr, align 8
  store ptr %0, ptr %2, align 8, !tbaa !20
  %3 = load ptr, ptr %2, align 8
  %4 = getelementptr inbounds nuw %"class.logging::LogMessage", ptr %3, i32 0, i32 2
  ret ptr %4
}

; Function Attrs: mustprogress nounwind uwtable
define linkonce_odr noundef ptr @_ZN7logging13CheckOpResult7messageB5cxx11Ev(ptr noundef nonnull align 8 dereferenceable(8) %0) #3 comdat align 2 {
  %2 = alloca ptr, align 8
  store ptr %0, ptr %2, align 8, !tbaa !14
  %3 = load ptr, ptr %2, align 8
  %4 = getelementptr inbounds nuw %"class.logging::CheckOpResult", ptr %3, i32 0, i32 0
  %5 = load ptr, ptr %4, align 8, !tbaa !18
  ret ptr %5
}

; Function Attrs: mustprogress nounwind uwtable
define linkonce_odr noundef zeroext i1 @_ZNK7logging13CheckOpResultcvbEv(ptr noundef nonnull align 8 dereferenceable(8) %0) #3 comdat align 2 {
  %2 = alloca ptr, align 8
  store ptr %0, ptr %2, align 8, !tbaa !14
  %3 = load ptr, ptr %2, align 8
  %4 = getelementptr inbounds nuw %"class.logging::CheckOpResult", ptr %3, i32 0, i32 0
  %5 = load ptr, ptr %4, align 8, !tbaa !18
  %6 = icmp ne ptr %5, null
  %7 = xor i1 %6, true
  ret i1 %7
}

; Function Attrs: mustprogress nounwind uwtable
define linkonce_odr void @_ZN7logging13CheckOpResultC2EPNSt7__cxx1112basic_stringIcSt11char_traitsIcESaIcEEE(ptr noundef nonnull align 8 dereferenceable(8) %0, ptr noundef %1) unnamed_addr #3 comdat align 2 {
  %3 = alloca ptr, align 8
  %4 = alloca ptr, align 8
  store ptr %0, ptr %3, align 8, !tbaa !14
  store ptr %1, ptr %4, align 8, !tbaa !16
  %5 = load ptr, ptr %3, align 8
  %6 = getelementptr inbounds nuw %"class.logging::CheckOpResult", ptr %5, i32 0, i32 0
  %7 = load ptr, ptr %4, align 8, !tbaa !16
  store ptr %7, ptr %6, align 8, !tbaa !18
  ret void
}

; Function Attrs: mustprogress nounwind uwtable
define noundef i32 @_ZNK3net14StrikeRegister22ExternalTimeToInternalEj(ptr noundef nonnull align 8 dereferenceable(56) %0, i32 noundef %1) #3 align 2 {
  %3 = alloca ptr, align 8
  %4 = alloca i32, align 4
  store ptr %0, ptr %3, align 8, !tbaa !24
  store i32 %1, ptr %4, align 4, !tbaa !3
  %5 = load ptr, ptr %3, align 8
  %6 = load i32, ptr %4, align 4, !tbaa !3
  %7 = getelementptr inbounds nuw %"class.net::StrikeRegister", ptr %5, i32 0, i32 2
  %8 = load i32, ptr %7, align 8, !tbaa !38
  %9 = sub i32 %6, %8
  ret i32 %9
}

; Function Attrs: mustprogress nounwind uwtable
define noundef i32 @_ZN3net14StrikeRegister13TimeFromBytesEPKh(ptr noundef %0) #3 align 2 {
  %2 = alloca ptr, align 8
  store ptr %0, ptr %2, align 8, !tbaa !12
  %3 = load ptr, ptr %2, align 8, !tbaa !12
  %4 = getelementptr inbounds i8, ptr %3, i64 0
  %5 = load i8, ptr %4, align 1, !tbaa !56
  %6 = zext i8 %5 to i32
  %7 = shl i32 %6, 24
  %8 = load ptr, ptr %2, align 8, !tbaa !12
  %9 = getelementptr inbounds i8, ptr %8, i64 1
  %10 = load i8, ptr %9, align 1, !tbaa !56
  %11 = zext i8 %10 to i32
  %12 = shl i32 %11, 16
  %13 = or i32 %7, %12
  %14 = load ptr, ptr %2, align 8, !tbaa !12
  %15 = getelementptr inbounds i8, ptr %14, i64 2
  %16 = load i8, ptr %15, align 1, !tbaa !56
  %17 = zext i8 %16 to i32
  %18 = shl i32 %17, 8
  %19 = or i32 %13, %18
  %20 = load ptr, ptr %2, align 8, !tbaa !12
  %21 = getelementptr inbounds i8, ptr %20, i64 3
  %22 = load i8, ptr %21, align 1, !tbaa !56
  %23 = zext i8 %22 to i32
  %24 = or i32 %19, %23
  ret i32 %24
}

; Function Attrs: mustprogress uwtable
define noundef ptr @_ZN3net14StrikeRegister13external_nodeEj(ptr noundef nonnull align 8 dereferenceable(56) %0, i32 noundef %1) #0 align 2 {
  %3 = alloca ptr, align 8
  %4 = alloca i32, align 4
  store ptr %0, ptr %3, align 8, !tbaa !24
  store i32 %1, ptr %4, align 4, !tbaa !3
  %5 = load ptr, ptr %3, align 8
  %6 = getelementptr inbounds nuw %"class.net::StrikeRegister", ptr %5, i32 0, i32 9
  %7 = load i32, ptr %4, align 4, !tbaa !3
  %8 = mul i32 %7, 24
  %9 = zext i32 %8 to i64
  %10 = call noundef nonnull align 1 dereferenceable(1) ptr @_ZNKSt10unique_ptrIA_hSt14default_deleteIS0_EEixEm(ptr noundef nonnull align 8 dereferenceable(8) %6, i64 noundef %9)
  ret ptr %10
}

; Function Attrs: mustprogress uwtable
define void @_ZN3net14StrikeRegister14DropOldestNodeEv(ptr noundef nonnull align 8 dereferenceable(56) %0) #0 align 2 personality ptr @__gxx_personality_v0 {
  %2 = alloca ptr, align 8
  %3 = alloca i32, align 4
  %4 = alloca ptr, align 8
  %5 = alloca ptr, align 8
  %6 = alloca ptr, align 8
  %7 = alloca i32, align 4
  %8 = alloca ptr, align 8
  %9 = alloca i32, align 4
  %10 = alloca %"class.logging::CheckOpResult", align 8
  %11 = alloca %"class.logging::LogMessage", align 8
  %12 = alloca ptr, align 8
  %13 = alloca i32, align 4
  %14 = alloca i32, align 4
  %15 = alloca i32, align 4
  store ptr %0, ptr %2, align 8, !tbaa !24
  %16 = load ptr, ptr %2, align 8
  call void @llvm.lifetime.start.p0(i64 4, ptr %3) #17
  %17 = getelementptr inbounds nuw %"class.net::StrikeRegister", ptr %16, i32 0, i32 7
  %18 = load i32, ptr %17, align 8, !tbaa !48
  %19 = lshr i32 %18, 8
  store i32 %19, ptr %3, align 4, !tbaa !3
  call void @llvm.lifetime.start.p0(i64 8, ptr %4) #17
  %20 = getelementptr inbounds nuw %"class.net::StrikeRegister", ptr %16, i32 0, i32 7
  store ptr %20, ptr %4, align 8, !tbaa !9
  call void @llvm.lifetime.start.p0(i64 8, ptr %5) #17
  store ptr null, ptr %5, align 8, !tbaa !9
  br label %21

21:                                               ; preds = %25, %1
  %22 = load i32, ptr %3, align 4, !tbaa !3
  %23 = and i32 %22, 8388608
  %24 = icmp eq i32 %23, 0
  br i1 %24, label %25, label %38

25:                                               ; preds = %21
  %26 = load ptr, ptr %4, align 8, !tbaa !9
  store ptr %26, ptr %5, align 8, !tbaa !9
  call void @llvm.lifetime.start.p0(i64 8, ptr %6) #17
  %27 = getelementptr inbounds nuw %"class.net::StrikeRegister", ptr %16, i32 0, i32 8
  %28 = load ptr, ptr %27, align 8, !tbaa !40
  %29 = load i32, ptr %3, align 4, !tbaa !3
  %30 = zext i32 %29 to i64
  %31 = getelementptr inbounds nuw %"class.net::StrikeRegister::InternalNode", ptr %28, i64 %30
  store ptr %31, ptr %6, align 8, !tbaa !51
  %32 = load ptr, ptr %6, align 8, !tbaa !51
  %33 = getelementptr inbounds nuw %"class.net::StrikeRegister::InternalNode", ptr %32, i32 0, i32 0
  %34 = getelementptr inbounds [2 x i32], ptr %33, i64 0, i64 0
  store ptr %34, ptr %4, align 8, !tbaa !9
  %35 = load ptr, ptr %4, align 8, !tbaa !9
  %36 = load i32, ptr %35, align 4, !tbaa !3
  %37 = lshr i32 %36, 8
  store i32 %37, ptr %3, align 4, !tbaa !3
  call void @llvm.lifetime.end.p0(i64 8, ptr %6) #17
  br label %21, !llvm.loop !59

38:                                               ; preds = %21
  call void @llvm.lifetime.start.p0(i64 4, ptr %7) #17
  %39 = load i32, ptr %3, align 4, !tbaa !3
  %40 = and i32 %39, -8388609
  store i32 %40, ptr %7, align 4, !tbaa !3
  call void @llvm.lifetime.start.p0(i64 8, ptr %8) #17
  %41 = load i32, ptr %7, align 4, !tbaa !3
  %42 = call noundef ptr @_ZN3net14StrikeRegister13external_nodeEj(ptr noundef nonnull align 8 dereferenceable(56) %16, i32 noundef %41)
  store ptr %42, ptr %8, align 8, !tbaa !12
  call void @llvm.lifetime.start.p0(i64 4, ptr %9) #17
  %43 = load ptr, ptr %8, align 8, !tbaa !12
  %44 = call noundef i32 @_ZN3net14StrikeRegister13TimeFromBytesEPKh(ptr noundef %43)
  %45 = call noundef i32 @_ZNK3net14StrikeRegister22ExternalTimeToInternalEj(ptr noundef nonnull align 8 dereferenceable(56) %16, i32 noundef %44)
  %46 = add i32 %45, 1
  store i32 %46, ptr %9, align 4, !tbaa !3
  call void @llvm.lifetime.start.p0(i64 8, ptr %10) #17
  call void @_ZN7logging13CheckOpResultC2EPNSt7__cxx1112basic_stringIcSt11char_traitsIcESaIcEEE(ptr noundef nonnull align 8 dereferenceable(8) %10, ptr noundef null)
  %47 = call noundef zeroext i1 @_ZNK7logging13CheckOpResultcvbEv(ptr noundef nonnull align 8 dereferenceable(8) %10)
  br i1 %47, label %48, label %49

48:                                               ; preds = %38
  br label %57

49:                                               ; preds = %38
  call void @llvm.lifetime.start.p0(i64 408, ptr %11) #17
  %50 = call noundef ptr @_ZN7logging13CheckOpResult7messageB5cxx11Ev(ptr noundef nonnull align 8 dereferenceable(8) %10)
  call void @_ZN7logging10LogMessageC1EPKciiPNSt7__cxx1112basic_stringIcSt11char_traitsIcESaIcEEE(ptr noundef nonnull align 8 dereferenceable(404) %11, ptr noundef @.str.1, i32 noundef 417, i32 noundef 0, ptr noundef %50)
  %51 = invoke noundef nonnull align 8 dereferenceable(8) ptr @_ZN7logging10LogMessage6streamEv(ptr noundef nonnull align 8 dereferenceable(404) %11)
          to label %52 unwind label %53

52:                                               ; preds = %49
  call void @_ZN7logging10LogMessageD1Ev(ptr noundef nonnull align 8 dereferenceable(404) %11) #17
  call void @llvm.lifetime.end.p0(i64 408, ptr %11) #17
  br label %57

53:                                               ; preds = %49
  %54 = landingpad { ptr, i32 }
          cleanup
  %55 = extractvalue { ptr, i32 } %54, 0
  store ptr %55, ptr %12, align 8
  %56 = extractvalue { ptr, i32 } %54, 1
  store i32 %56, ptr %13, align 4
  call void @_ZN7logging10LogMessageD1Ev(ptr noundef nonnull align 8 dereferenceable(404) %11) #17
  call void @llvm.lifetime.end.p0(i64 408, ptr %11) #17
  call void @llvm.lifetime.end.p0(i64 8, ptr %10) #17
  call void @llvm.lifetime.end.p0(i64 4, ptr %9) #17
  call void @llvm.lifetime.end.p0(i64 8, ptr %8) #17
  call void @llvm.lifetime.end.p0(i64 4, ptr %7) #17
  call void @llvm.lifetime.end.p0(i64 8, ptr %5) #17
  call void @llvm.lifetime.end.p0(i64 8, ptr %4) #17
  call void @llvm.lifetime.end.p0(i64 4, ptr %3) #17
  br label %83

57:                                               ; preds = %52, %48
  call void @llvm.lifetime.end.p0(i64 8, ptr %10) #17
  %58 = load i32, ptr %9, align 4, !tbaa !3
  %59 = getelementptr inbounds nuw %"class.net::StrikeRegister", ptr %16, i32 0, i32 4
  store i32 %58, ptr %59, align 4, !tbaa !39
  %60 = load ptr, ptr %5, align 8, !tbaa !9
  %61 = icmp ne ptr %60, null
  br i1 %61, label %65, label %62

62:                                               ; preds = %57
  %63 = getelementptr inbounds nuw %"class.net::StrikeRegister", ptr %16, i32 0, i32 7
  store i32 -2147483647, ptr %63, align 8, !tbaa !48
  %64 = load i32, ptr %7, align 4, !tbaa !3
  call void @_ZN3net14StrikeRegister16FreeExternalNodeEj(ptr noundef nonnull align 8 dereferenceable(56) %16, i32 noundef %64)
  store i32 1, ptr %14, align 4
  br label %80

65:                                               ; preds = %57
  call void @llvm.lifetime.start.p0(i64 4, ptr %15) #17
  %66 = load ptr, ptr %4, align 8, !tbaa !9
  %67 = getelementptr inbounds i32, ptr %66, i64 1
  %68 = load i32, ptr %67, align 4, !tbaa !3
  store i32 %68, ptr %15, align 4, !tbaa !3
  %69 = load ptr, ptr %5, align 8, !tbaa !9
  %70 = load i32, ptr %69, align 4, !tbaa !3
  %71 = lshr i32 %70, 8
  call void @_ZN3net14StrikeRegister16FreeInternalNodeEj(ptr noundef nonnull align 8 dereferenceable(56) %16, i32 noundef %71)
  %72 = load ptr, ptr %5, align 8, !tbaa !9
  %73 = load i32, ptr %72, align 4, !tbaa !3
  %74 = and i32 %73, 255
  %75 = load i32, ptr %15, align 4, !tbaa !3
  %76 = and i32 %75, -256
  %77 = or i32 %74, %76
  %78 = load ptr, ptr %5, align 8, !tbaa !9
  store i32 %77, ptr %78, align 4, !tbaa !3
  %79 = load i32, ptr %7, align 4, !tbaa !3
  call void @_ZN3net14StrikeRegister16FreeExternalNodeEj(ptr noundef nonnull align 8 dereferenceable(56) %16, i32 noundef %79)
  call void @llvm.lifetime.end.p0(i64 4, ptr %15) #17
  store i32 0, ptr %14, align 4
  br label %80

80:                                               ; preds = %65, %62
  call void @llvm.lifetime.end.p0(i64 4, ptr %9) #17
  call void @llvm.lifetime.end.p0(i64 8, ptr %8) #17
  call void @llvm.lifetime.end.p0(i64 4, ptr %7) #17
  call void @llvm.lifetime.end.p0(i64 8, ptr %5) #17
  call void @llvm.lifetime.end.p0(i64 8, ptr %4) #17
  call void @llvm.lifetime.end.p0(i64 4, ptr %3) #17
  %81 = load i32, ptr %14, align 4
  switch i32 %81, label %88 [
    i32 0, label %82
    i32 1, label %82
  ]

82:                                               ; preds = %80, %80
  ret void

83:                                               ; preds = %53
  %84 = load ptr, ptr %12, align 8
  %85 = load i32, ptr %13, align 4
  %86 = insertvalue { ptr, i32 } poison, ptr %84, 0
  %87 = insertvalue { ptr, i32 } %86, i32 %85, 1
  resume { ptr, i32 } %87

88:                                               ; preds = %80
  unreachable
}