; Function Attrs: mustprogress nofree norecurse nosync nounwind memory(readwrite, inaccessiblemem: none) uwtable
define void @_ZN3net14StrikeRegister14DropOldestNodeEv(ptr noundef nonnull align 8 captures(address) dereferenceable(56) %0) local_unnamed_addr #10 align 2 personality ptr @__gxx_personality_v0 {
  %2 = getelementptr inbounds nuw i8, ptr %0, i64 32
  %.0.in20 = load i32, ptr %2, align 8, !tbaa !3
  %.021 = lshr i32 %.0.in20, 8
  %3 = icmp sgt i32 %.0.in20, -1
  br i1 %3, label %.lr.ph, label %._crit_edge

.lr.ph:                                           ; preds = %1
  %4 = getelementptr inbounds nuw i8, ptr %0, i64 40
  %5 = load ptr, ptr %4, align 8, !tbaa !22
  br label %6

6:                                                ; preds = %.lr.ph, %6
  %.023 = phi i32 [ %.021, %.lr.ph ], [ %.0, %6 ]
  %.01722 = phi ptr [ %2, %.lr.ph ], [ %8, %6 ]
  %7 = zext nneg i32 %.023 to i64
  %8 = getelementptr inbounds nuw %"class.net::StrikeRegister::InternalNode", ptr %5, i64 %7
  %.0.in = load i32, ptr %8, align 4, !tbaa !3
  %.0 = lshr i32 %.0.in, 8
  %9 = icmp sgt i32 %.0.in, -1
  br i1 %9, label %6, label %._crit_edge, !llvm.loop !30

._crit_edge:                                      ; preds = %6, %1
  %.018.lcssa = phi ptr [ null, %1 ], [ %.01722, %6 ]
  %.017.lcssa = phi ptr [ %2, %1 ], [ %8, %6 ]
  %.0.lcssa = phi i32 [ %.021, %1 ], [ %.0, %6 ]
  %10 = and i32 %.0.lcssa, 8388607
  %11 = getelementptr inbounds nuw i8, ptr %0, i64 48
  %12 = mul nuw nsw i32 %10, 24
  %13 = zext nneg i32 %12 to i64
  %14 = load ptr, ptr %11, align 8, !tbaa !23
  %15 = getelementptr inbounds nuw i8, ptr %14, i64 %13
  %16 = load i8, ptr %15, align 1, !tbaa !31
  %17 = zext i8 %16 to i32
  %18 = shl nuw i32 %17, 24
  %19 = getelementptr inbounds nuw i8, ptr %15, i64 1
  %20 = load i8, ptr %19, align 1, !tbaa !31
  %21 = zext i8 %20 to i32
  %22 = shl nuw nsw i32 %21, 16
  %23 = or disjoint i32 %22, %18
  %24 = getelementptr inbounds nuw i8, ptr %15, i64 2
  %25 = load i8, ptr %24, align 1, !tbaa !31
  %26 = zext i8 %25 to i32
  %27 = shl nuw nsw i32 %26, 8
  %28 = or disjoint i32 %23, %27
  %29 = getelementptr inbounds nuw i8, ptr %15, i64 3
  %30 = load i8, ptr %29, align 1, !tbaa !31
  %31 = zext i8 %30 to i32
  %32 = or disjoint i32 %28, %31
  %33 = getelementptr inbounds nuw i8, ptr %0, i64 8
  %34 = load i32, ptr %33, align 8, !tbaa !19
  %reass.sub = sub i32 %32, %34
  %35 = add i32 %reass.sub, 1
  %36 = getelementptr inbounds nuw i8, ptr %0, i64 20
  store i32 %35, ptr %36, align 4, !tbaa !20
  %.not = icmp eq ptr %.018.lcssa, null
  br i1 %.not, label %37, label %38

37:                                               ; preds = %._crit_edge
  store i32 -2147483647, ptr %2, align 8, !tbaa !29
  br label %53

38:                                               ; preds = %._crit_edge
  %39 = getelementptr inbounds nuw i8, ptr %.017.lcssa, i64 4
  %40 = load i32, ptr %39, align 4, !tbaa !3
  %41 = load i32, ptr %.018.lcssa, align 4, !tbaa !3
  %42 = lshr i32 %41, 8
  %43 = getelementptr inbounds nuw i8, ptr %0, i64 40
  %44 = load ptr, ptr %43, align 8, !tbaa !22
  %45 = zext nneg i32 %42 to i64
  %46 = getelementptr inbounds nuw %"class.net::StrikeRegister::InternalNode", ptr %44, i64 %45
  %47 = getelementptr inbounds nuw i8, ptr %0, i64 24
  %48 = load i32, ptr %47, align 8, !tbaa !24
  store i32 %48, ptr %46, align 4, !tbaa !3
  store i32 %42, ptr %47, align 8, !tbaa !24
  %49 = load i32, ptr %.018.lcssa, align 4, !tbaa !3
  %50 = and i32 %49, 255
  %51 = and i32 %40, -256
  %52 = or disjoint i32 %50, %51
  store i32 %52, ptr %.018.lcssa, align 4, !tbaa !3
  br label %53

53:                                               ; preds = %38, %37
  %54 = getelementptr inbounds nuw i8, ptr %0, i64 28
  %55 = load i32, ptr %54, align 4, !tbaa !25
  store i32 %55, ptr %15, align 4, !tbaa !3
  store i32 %10, ptr %54, align 4, !tbaa !25
  ret void
}